; ModuleID = '55/1360.cpp'
source_filename = "55/1360.cpp"
target datalayout = "e-m:e-p270:32:32-p271:32:32-p272:64:64-i64:64-f80:128-n8:16:32:64-S128"
target triple = "x86_64-pc-linux-gnu"

%"class.std::ios_base::Init" = type { i8 }
%"class.std::basic_ostream" = type { i32 (...)**, %"class.std::basic_ios" }
%"class.std::basic_ios" = type { %"class.std::ios_base", %"class.std::basic_ostream"*, i8, i8, %"class.std::basic_streambuf"*, %"class.std::ctype"*, %"class.std::num_put"*, %"class.std::num_get"* }
%"class.std::ios_base" = type { i32 (...)**, i64, i64, i32, i32, i32, %"struct.std::ios_base::_Callback_list"*, %"struct.std::ios_base::_Words", [8 x %"struct.std::ios_base::_Words"], i32, %"struct.std::ios_base::_Words"*, %"class.std::locale" }
%"struct.std::ios_base::_Callback_list" = type { %"struct.std::ios_base::_Callback_list"*, void (i32, %"class.std::ios_base"*, i32)*, i32, i32 }
%"struct.std::ios_base::_Words" = type { i8*, i64 }
%"class.std::locale" = type { %"class.std::locale::_Impl"* }
%"class.std::locale::_Impl" = type { i32, %"class.std::locale::facet"**, i64, %"class.std::locale::facet"**, i8** }
%"class.std::locale::facet" = type <{ i32 (...)**, i32, [4 x i8] }>
%"class.std::basic_streambuf" = type { i32 (...)**, i8*, i8*, i8*, i8*, i8*, i8*, %"class.std::locale" }
%"class.std::ctype" = type <{ %"class.std::locale::facet.base", [4 x i8], %struct.__locale_struct*, i8, [7 x i8], i32*, i32*, i16*, i8, [256 x i8], [256 x i8], i8, [6 x i8] }>
%"class.std::locale::facet.base" = type <{ i32 (...)**, i32 }>
%struct.__locale_struct = type { [13 x %struct.__locale_data*], i16*, i32*, i32*, [13 x i8*] }
%struct.__locale_data = type opaque
%"class.std::num_put" = type { %"class.std::locale::facet.base", [4 x i8] }
%"class.std::num_get" = type { %"class.std::locale::facet.base", [4 x i8] }
%"class.std::basic_istream" = type { i32 (...)**, i64, %"class.std::basic_ios" }

@_ZStL8__ioinit = internal global %"class.std::ios_base::Init" zeroinitializer, align 1
@__dso_handle = external hidden global i8
@n = dso_local global [10000000 x i8] zeroinitializer, align 16
@result = dso_local global [10000000 x i8] zeroinitializer, align 16
@exchange = dso_local global i64 0, align 8
@_ZSt4cout = external dso_local global %"class.std::basic_ostream", align 8
@_ZSt3cin = external dso_local global %"class.std::basic_istream", align 8
@llvm.global_ctors = appending global [1 x { i32, void ()*, i8* }] [{ i32, void ()*, i8* } { i32 65535, void ()* @_GLOBAL__sub_I_1360.cpp, i8* null }]

; Function Attrs: noinline uwtable
define internal void @__cxx_global_var_init() #0 section ".text.startup" {
  call void @_ZNSt8ios_base4InitC1Ev(%"class.std::ios_base::Init"* @_ZStL8__ioinit)
  %1 = call i32 @__cxa_atexit(void (i8*)* bitcast (void (%"class.std::ios_base::Init"*)* @_ZNSt8ios_base4InitD1Ev to void (i8*)*), i8* getelementptr inbounds (%"class.std::ios_base::Init", %"class.std::ios_base::Init"* @_ZStL8__ioinit, i32 0, i32 0), i8* @__dso_handle) #3
  ret void
}

declare dso_local void @_ZNSt8ios_base4InitC1Ev(%"class.std::ios_base::Init"*) unnamed_addr #1

; Function Attrs: nounwind
declare dso_local void @_ZNSt8ios_base4InitD1Ev(%"class.std::ios_base::Init"*) unnamed_addr #2

; Function Attrs: nounwind
declare dso_local i32 @__cxa_atexit(void (i8*)*, i8*, i8*) #3

; Function Attrs: noinline uwtable
define dso_local void @_Z6changeiPci(i32 %0, i8* %1, i32 %2) #0 {
  %4 = alloca i32, align 4
  %5 = alloca i8*, align 8
  %6 = alloca i32, align 4
  %7 = alloca i32, align 4
  %8 = alloca i32, align 4
  %9 = alloca i32, align 4
  %10 = alloca i32, align 4
  %11 = alloca i32, align 4
  %12 = alloca i32, align 4
  %13 = alloca i32, align 4
  store i32 %0, i32* %4, align 4
  store i8* %1, i8** %5, align 8
  store i32 %2, i32* %6, align 4
  store i32 1, i32* %13, align 4
  %14 = load i8*, i8** %5, align 8
  %15 = call i64 @strlen(i8* %14) #6
  %16 = trunc i64 %15 to i32
  store i32 %16, i32* %7, align 4
  %17 = load i32, i32* %7, align 4
  %18 = sub nsw i32 %17, 1
  store i32 %18, i32* %8, align 4
  store i32 0, i32* %9, align 4
  br label %19

19:                                               ; preds = %81, %3
  %20 = load i32, i32* %8, align 4
  %21 = icmp sge i32 %20, 0
  br i1 %21, label %22, label %95

22:                                               ; preds = %19
  %23 = load i8*, i8** %5, align 8
  %24 = load i32, i32* %8, align 4
  %25 = sext i32 %24 to i64
  %26 = getelementptr inbounds i8, i8* %23, i64 %25
  %27 = load i8, i8* %26, align 1
  %28 = sext i8 %27 to i32
  %29 = icmp sge i32 %28, 65
  br i1 %29, label %30, label %47

30:                                               ; preds = %22
  %31 = load i8*, i8** %5, align 8
  %32 = load i32, i32* %8, align 4
  %33 = sext i32 %32 to i64
  %34 = getelementptr inbounds i8, i8* %31, i64 %33
  %35 = load i8, i8* %34, align 1
  %36 = sext i8 %35 to i32
  %37 = icmp sle i32 %36, 90
  br i1 %37, label %38, label %47

38:                                               ; preds = %30
  %39 = load i8*, i8** %5, align 8
  %40 = load i32, i32* %8, align 4
  %41 = sext i32 %40 to i64
  %42 = getelementptr inbounds i8, i8* %39, i64 %41
  %43 = load i8, i8* %42, align 1
  %44 = sext i8 %43 to i32
  %45 = add nsw i32 10, %44
  %46 = sub nsw i32 %45, 65
  store i32 %46, i32* %11, align 4
  br label %81

47:                                               ; preds = %30, %22
  %48 = load i8*, i8** %5, align 8
  %49 = load i32, i32* %8, align 4
  %50 = sext i32 %49 to i64
  %51 = getelementptr inbounds i8, i8* %48, i64 %50
  %52 = load i8, i8* %51, align 1
  %53 = sext i8 %52 to i32
  %54 = icmp sge i32 %53, 97
  br i1 %54, label %55, label %72

55:                                               ; preds = %47
  %56 = load i8*, i8** %5, align 8
  %57 = load i32, i32* %8, align 4
  %58 = sext i32 %57 to i64
  %59 = getelementptr inbounds i8, i8* %56, i64 %58
  %60 = load i8, i8* %59, align 1
  %61 = sext i8 %60 to i32
  %62 = icmp sle i32 %61, 122
  br i1 %62, label %63, label %72

63:                                               ; preds = %55
  %64 = load i8*, i8** %5, align 8
  %65 = load i32, i32* %8, align 4
  %66 = sext i32 %65 to i64
  %67 = getelementptr inbounds i8, i8* %64, i64 %66
  %68 = load i8, i8* %67, align 1
  %69 = sext i8 %68 to i32
  %70 = add nsw i32 10, %69
  %71 = sub nsw i32 %70, 97
  store i32 %71, i32* %11, align 4
  br label %80

72:                                               ; preds = %55, %47
  %73 = load i8*, i8** %5, align 8
  %74 = load i32, i32* %8, align 4
  %75 = sext i32 %74 to i64
  %76 = getelementptr inbounds i8, i8* %73, i64 %75
  %77 = load i8, i8* %76, align 1
  %78 = sext i8 %77 to i32
  %79 = sub nsw i32 %78, 48
  store i32 %79, i32* %11, align 4
  br label %80

80:                                               ; preds = %72, %63
  br label %81

81:                                               ; preds = %80, %38
  %82 = load i64, i64* @exchange, align 8
  %83 = load i32, i32* %11, align 4
  %84 = load i32, i32* %13, align 4
  %85 = mul nsw i32 %83, %84
  %86 = sext i32 %85 to i64
  %87 = add nsw i64 %82, %86
  store i64 %87, i64* @exchange, align 8
  %88 = load i32, i32* %4, align 4
  %89 = load i32, i32* %13, align 4
  %90 = mul nsw i32 %88, %89
  store i32 %90, i32* %13, align 4
  %91 = load i32, i32* %8, align 4
  %92 = add nsw i32 %91, -1
  store i32 %92, i32* %8, align 4
  %93 = load i32, i32* %9, align 4
  %94 = add nsw i32 %93, 1
  store i32 %94, i32* %9, align 4
  br label %19

95:                                               ; preds = %19
  %96 = load i64, i64* @exchange, align 8
  %97 = icmp eq i64 %96, 0
  br i1 %97, label %98, label %100

98:                                               ; preds = %95
  %99 = call dereferenceable(272) %"class.std::basic_ostream"* @_ZNSolsEi(%"class.std::basic_ostream"* @_ZSt4cout, i32 0)
  br label %152

100:                                              ; preds = %95
  store i32 9999999, i32* %9, align 4
  br label %101

101:                                              ; preds = %129, %100
  %102 = load i64, i64* @exchange, align 8
  %103 = icmp ne i64 %102, 0
  br i1 %103, label %104, label %136

104:                                              ; preds = %101
  %105 = load i64, i64* @exchange, align 8
  %106 = load i32, i32* %6, align 4
  %107 = sext i32 %106 to i64
  %108 = srem i64 %105, %107
  %109 = trunc i64 %108 to i32
  store i32 %109, i32* %12, align 4
  %110 = load i32, i32* %12, align 4
  %111 = icmp sge i32 %110, 0
  br i1 %111, label %112, label %122

112:                                              ; preds = %104
  %113 = load i32, i32* %12, align 4
  %114 = icmp sle i32 %113, 9
  br i1 %114, label %115, label %122

115:                                              ; preds = %112
  %116 = load i32, i32* %12, align 4
  %117 = add nsw i32 %116, 48
  %118 = trunc i32 %117 to i8
  %119 = load i32, i32* %9, align 4
  %120 = sext i32 %119 to i64
  %121 = getelementptr inbounds [10000000 x i8], [10000000 x i8]* @result, i64 0, i64 %120
  store i8 %118, i8* %121, align 1
  br label %129

122:                                              ; preds = %112, %104
  %123 = load i32, i32* %12, align 4
  %124 = add nsw i32 %123, 55
  %125 = trunc i32 %124 to i8
  %126 = load i32, i32* %9, align 4
  %127 = sext i32 %126 to i64
  %128 = getelementptr inbounds [10000000 x i8], [10000000 x i8]* @result, i64 0, i64 %127
  store i8 %125, i8* %128, align 1
  br label %129

129:                                              ; preds = %122, %115
  %130 = load i64, i64* @exchange, align 8
  %131 = load i32, i32* %6, align 4
  %132 = sext i32 %131 to i64
  %133 = sdiv i64 %130, %132
  store i64 %133, i64* @exchange, align 8
  %134 = load i32, i32* %9, align 4
  %135 = add nsw i32 %134, -1
  store i32 %135, i32* %9, align 4
  br label %101

136:                                              ; preds = %101
  %137 = load i32, i32* %9, align 4
  %138 = add nsw i32 %137, 1
  store i32 %138, i32* %10, align 4
  br label %139

139:                                              ; preds = %148, %136
  %140 = load i32, i32* %10, align 4
  %141 = icmp slt i32 %140, 10000000
  br i1 %141, label %142, label %151

142:                                              ; preds = %139
  %143 = load i32, i32* %10, align 4
  %144 = sext i32 %143 to i64
  %145 = getelementptr inbounds [10000000 x i8], [10000000 x i8]* @result, i64 0, i64 %144
  %146 = load i8, i8* %145, align 1
  %147 = call dereferenceable(272) %"class.std::basic_ostream"* @_ZStlsISt11char_traitsIcEERSt13basic_ostreamIcT_ES5_c(%"class.std::basic_ostream"* dereferenceable(272) @_ZSt4cout, i8 signext %146)
  br label %148

148:                                              ; preds = %142
  %149 = load i32, i32* %10, align 4
  %150 = add nsw i32 %149, 1
  store i32 %150, i32* %10, align 4
  br label %139

151:                                              ; preds = %139
  br label %152

152:                                              ; preds = %151, %98
  ret void
}

; Function Attrs: nounwind readonly
declare dso_local i64 @strlen(i8*) #4

declare dso_local dereferenceable(272) %"class.std::basic_ostream"* @_ZNSolsEi(%"class.std::basic_ostream"*, i32) #1

declare dso_local dereferenceable(272) %"class.std::basic_ostream"* @_ZStlsISt11char_traitsIcEERSt13basic_ostreamIcT_ES5_c(%"class.std::basic_ostream"* dereferenceable(272), i8 signext) #1

; Function Attrs: noinline norecurse uwtable
define dso_local i32 @main() #5 {
  %1 = alloca i32, align 4
  %2 = alloca i32, align 4
  %3 = alloca i32, align 4
  store i32 0, i32* %1, align 4
  %4 = call dereferenceable(280) %"class.std::basic_istream"* @_ZNSirsERi(%"class.std::basic_istream"* @_ZSt3cin, i32* dereferenceable(4) %2)
  %5 = call dereferenceable(280) %"class.std::basic_istream"* @_ZStrsIcSt11char_traitsIcEERSt13basic_istreamIT_T0_ES6_PS3_(%"class.std::basic_istream"* dereferenceable(280) @_ZSt3cin, i8* getelementptr inbounds ([10000000 x i8], [10000000 x i8]* @n, i64 0, i64 0))
  %6 = call dereferenceable(280) %"class.std::basic_istream"* @_ZNSirsERi(%"class.std::basic_istream"* @_ZSt3cin, i32* dereferenceable(4) %3)
  %7 = load i32, i32* %2, align 4
  %8 = load i32, i32* %3, align 4
  call void @_Z6changeiPci(i32 %7, i8* getelementptr inbounds ([10000000 x i8], [10000000 x i8]* @n, i64 0, i64 0), i32 %8)
  ret i32 0
}

declare dso_local dereferenceable(280) %"class.std::basic_istream"* @_ZNSirsERi(%"class.std::basic_istream"*, i32* dereferenceable(4)) #1

declare dso_local dereferenceable(280) %"class.std::basic_istream"* @_ZStrsIcSt11char_traitsIcEERSt13basic_istreamIT_T0_ES6_PS3_(%"class.std::basic_istream"* dereferenceable(280), i8*) #1

; Function Attrs: noinline uwtable
define internal void @_GLOBAL__sub_I_1360.cpp() #0 section ".text.startup" {
  call void @__cxx_global_var_init()
  ret void
}


!llvm.module.flags = !{!0}
!llvm.ident = !{!1}

!0 = !{i32 1, !"wchar_size", i32 4}
!1 = !{!"clang version 10.0.0-4ubuntu1 "}
