; ModuleID = 'source-C-CXX/54/1360.cpp'
source_filename = "source-C-CXX/54/1360.cpp"
target datalayout = "e-m:e-p270:32:32-p271:32:32-p272:64:64-i64:64-f80:128-n8:16:32:64-S128"
target triple = "x86_64-pc-linux-gnu"

%"class.std::ios_base::Init" = type { i8 }
%"class.std::basic_ostream" = type { i32 (...)**, %"class.std::basic_ios" }
%"class.std::basic_ios" = type { %"class.std::ios_base", %"class.std::basic_ostream"*, i8, i8, %"class.std::basic_streambuf"*, %"class.std::ctype"*, %"class.std::num_put"*, %"class.std::num_get"* }
%"class.std::ios_base" = type { i32 (...)**, i64, i64, i32, i32, i32, %"struct.std::ios_base::_Callback_list"*, %"struct.std::ios_base::_Words", [8 x %"struct.std::ios_base::_Words"], i32, %"struct.std::ios_base::_Words"*, %"class.std::locale" }
%"struct.std::ios_base::_Callback_list" = type { %"struct.std::ios_base::_Callback_list"*, void (i32, %"class.std::ios_base"*, i32)*, i32, i32 }
%"struct.std::ios_base::_Words" = type { i8*, i64 }
%"class.std::locale" = type { %"class.std::locale::_Impl"* }
%"class.std::locale::_Impl" = type { i32, %"class.std::locale::facet"**, i64, %"class.std::locale::facet"**, i8** }
%"class.std::locale::facet" = type <{ i32 (...)**, i32, [4 x i8] }>
%"class.std::basic_streambuf" = type { i32 (...)**, i8*, i8*, i8*, i8*, i8*, i8*, %"class.std::locale" }
%"class.std::ctype" = type <{ %"class.std::locale::facet.base", [4 x i8], %struct.__locale_struct*, i8, [7 x i8], i32*, i32*, i16*, i8, [256 x i8], [256 x i8], i8, [6 x i8] }>
%"class.std::locale::facet.base" = type <{ i32 (...)**, i32 }>
%struct.__locale_struct = type { [13 x %struct.__locale_data*], i16*, i32*, i32*, [13 x i8*] }
%struct.__locale_data = type opaque
%"class.std::num_put" = type { %"class.std::locale::facet.base", [4 x i8] }
%"class.std::num_get" = type { %"class.std::locale::facet.base", [4 x i8] }
%"class.std::basic_istream" = type { i32 (...)**, i64, %"class.std::basic_ios" }

@_ZStL8__ioinit = internal global %"class.std::ios_base::Init" zeroinitializer, align 1
@__dso_handle = external hidden global i8
@n = dso_local global [10000000 x i8] zeroinitializer, align 16
@result = dso_local local_unnamed_addr global [10000000 x i8] zeroinitializer, align 16
@exchange = dso_local local_unnamed_addr global i64 0, align 8
@_ZSt4cout = external global %"class.std::basic_ostream", align 8
@_ZSt3cin = external global %"class.std::basic_istream", align 8
@llvm.global_ctors = appending global [1 x { i32, void ()*, i8* }] [{ i32, void ()*, i8* } { i32 65535, void ()* @_GLOBAL__sub_I_1360.cpp, i8* null }]

declare void @_ZNSt8ios_base4InitC1Ev(%"class.std::ios_base::Init"* nonnull align 1 dereferenceable(1)) unnamed_addr #0

; Function Attrs: nounwind
declare void @_ZNSt8ios_base4InitD1Ev(%"class.std::ios_base::Init"* nonnull align 1 dereferenceable(1)) unnamed_addr #1

; Function Attrs: nofree nounwind
declare i32 @__cxa_atexit(void (i8*)*, i8*, i8*) local_unnamed_addr #2

; Function Attrs: mustprogress sspstrong uwtable
define dso_local void @_Z6changeiPci(i32 %0, i8* nocapture readonly %1, i32 %2) local_unnamed_addr #3 {
  %4 = alloca i8, align 1
  %5 = tail call i64 @strlen(i8* noundef nonnull dereferenceable(1) %1) #8
  %6 = trunc i64 %5 to i32
  %7 = icmp sgt i32 %6, 0
  br i1 %7, label %10, label %8

8:                                                ; preds = %3
  %9 = load i64, i64* @exchange, align 8, !tbaa !5
  br label %35

10:                                               ; preds = %3
  %11 = and i64 %5, 4294967295
  br label %12

12:                                               ; preds = %10, %12
  %13 = phi i64 [ %11, %10 ], [ %34, %12 ]
  %14 = phi i32 [ %6, %10 ], [ %16, %12 ]
  %15 = phi i32 [ 1, %10 ], [ %32, %12 ]
  %16 = add nsw i32 %14, -1
  %17 = zext i32 %16 to i64
  %18 = getelementptr inbounds i8, i8* %1, i64 %17
  %19 = load i8, i8* %18, align 1, !tbaa !9
  %20 = sext i8 %19 to i32
  %21 = add i8 %19, -65
  %22 = icmp ult i8 %21, 26
  %23 = add i8 %19, -97
  %24 = icmp ult i8 %23, 26
  %25 = select i1 %24, i32 -87, i32 -48
  %26 = select i1 %22, i32 -55, i32 %25
  %27 = add nsw i32 %26, %20
  %28 = load i64, i64* @exchange, align 8, !tbaa !5
  %29 = mul nsw i32 %27, %15
  %30 = sext i32 %29 to i64
  %31 = add nsw i64 %28, %30
  store i64 %31, i64* @exchange, align 8, !tbaa !5
  %32 = mul nsw i32 %15, %0
  %33 = icmp sgt i64 %13, 1
  %34 = add nsw i64 %13, -1
  br i1 %33, label %12, label %35, !llvm.loop !10

35:                                               ; preds = %12, %8
  %36 = phi i64 [ %9, %8 ], [ %31, %12 ]
  %37 = icmp eq i64 %36, 0
  br i1 %37, label %40, label %38

38:                                               ; preds = %35
  %39 = sext i32 %2 to i64
  br label %48

40:                                               ; preds = %35
  %41 = tail call nonnull align 8 dereferenceable(8) %"class.std::basic_ostream"* @_ZNSolsEi(%"class.std::basic_ostream"* nonnull align 8 dereferenceable(8) @_ZSt4cout, i32 0)
  br label %69

42:                                               ; preds = %48
  %43 = trunc i64 %49 to i32
  store i64 0, i64* @exchange, align 8, !tbaa !5
  %44 = icmp slt i32 %43, 10000000
  br i1 %44, label %45, label %69

45:                                               ; preds = %42
  %46 = shl i64 %49, 32
  %47 = ashr exact i64 %46, 32
  br label %61

48:                                               ; preds = %38, %48
  %49 = phi i64 [ 9999999, %38 ], [ %59, %48 ]
  %50 = phi i64 [ %36, %38 ], [ %58, %48 ]
  %51 = srem i64 %50, %39
  %52 = trunc i64 %51 to i32
  %53 = icmp ult i32 %52, 10
  %54 = trunc i64 %51 to i8
  %55 = select i1 %53, i8 48, i8 55
  %56 = add i8 %55, %54
  %57 = getelementptr inbounds [10000000 x i8], [10000000 x i8]* @result, i64 0, i64 %49
  store i8 %56, i8* %57, align 1
  %58 = sdiv i64 %50, %39
  %59 = add i64 %49, -1
  %60 = icmp eq i64 %58, 0
  br i1 %60, label %42, label %48, !llvm.loop !12

61:                                               ; preds = %45, %61
  %62 = phi i64 [ %47, %45 ], [ %66, %61 ]
  %63 = getelementptr inbounds [10000000 x i8], [10000000 x i8]* @result, i64 0, i64 %62
  %64 = load i8, i8* %63, align 1, !tbaa !9
  call void @llvm.lifetime.start.p0i8(i64 1, i8* nonnull %4)
  store i8 %64, i8* %4, align 1, !tbaa !9
  %65 = call nonnull align 8 dereferenceable(8) %"class.std::basic_ostream"* @_ZSt16__ostream_insertIcSt11char_traitsIcEERSt13basic_ostreamIT_T0_ES6_PKS3_l(%"class.std::basic_ostream"* nonnull align 8 dereferenceable(8) @_ZSt4cout, i8* nonnull %4, i64 1)
  call void @llvm.lifetime.end.p0i8(i64 1, i8* nonnull %4)
  %66 = add nsw i64 %62, 1
  %67 = trunc i64 %66 to i32
  %68 = icmp eq i32 %67, 10000000
  br i1 %68, label %69, label %61, !llvm.loop !13

69:                                               ; preds = %61, %42, %40
  ret void
}

; Function Attrs: argmemonly mustprogress nofree nosync nounwind willreturn
declare void @llvm.lifetime.start.p0i8(i64 immarg, i8* nocapture) #4

; Function Attrs: argmemonly mustprogress nofree nounwind readonly willreturn
declare i64 @strlen(i8* nocapture) local_unnamed_addr #5

declare nonnull align 8 dereferenceable(8) %"class.std::basic_ostream"* @_ZNSolsEi(%"class.std::basic_ostream"* nonnull align 8 dereferenceable(8), i32) local_unnamed_addr #0

; Function Attrs: argmemonly mustprogress nofree nosync nounwind willreturn
declare void @llvm.lifetime.end.p0i8(i64 immarg, i8* nocapture) #4

; Function Attrs: mustprogress norecurse sspstrong uwtable
define dso_local i32 @main() local_unnamed_addr #6 {
  %1 = alloca i32, align 4
  %2 = alloca i32, align 4
  %3 = bitcast i32* %1 to i8*
  call void @llvm.lifetime.start.p0i8(i64 4, i8* nonnull %3) #9
  %4 = bitcast i32* %2 to i8*
  call void @llvm.lifetime.start.p0i8(i64 4, i8* nonnull %4) #9
  %5 = call nonnull align 8 dereferenceable(16) %"class.std::basic_istream"* @_ZNSirsERi(%"class.std::basic_istream"* nonnull align 8 dereferenceable(16) @_ZSt3cin, i32* nonnull align 4 dereferenceable(4) %1)
  call void @_ZSt17__istream_extractRSiPcl(%"class.std::basic_istream"* nonnull align 8 dereferenceable(16) @_ZSt3cin, i8* nonnull getelementptr inbounds ([10000000 x i8], [10000000 x i8]* @n, i64 0, i64 0), i64 10000000)
  %6 = call nonnull align 8 dereferenceable(16) %"class.std::basic_istream"* @_ZNSirsERi(%"class.std::basic_istream"* nonnull align 8 dereferenceable(16) @_ZSt3cin, i32* nonnull align 4 dereferenceable(4) %2)
  %7 = load i32, i32* %1, align 4, !tbaa !14
  %8 = load i32, i32* %2, align 4, !tbaa !14
  call void @_Z6changeiPci(i32 %7, i8* getelementptr inbounds ([10000000 x i8], [10000000 x i8]* @n, i64 0, i64 0), i32 %8)
  call void @llvm.lifetime.end.p0i8(i64 4, i8* nonnull %4) #9
  call void @llvm.lifetime.end.p0i8(i64 4, i8* nonnull %3) #9
  ret i32 0
}

declare nonnull align 8 dereferenceable(16) %"class.std::basic_istream"* @_ZNSirsERi(%"class.std::basic_istream"* nonnull align 8 dereferenceable(16), i32* nonnull align 4 dereferenceable(4)) local_unnamed_addr #0

declare nonnull align 8 dereferenceable(8) %"class.std::basic_ostream"* @_ZSt16__ostream_insertIcSt11char_traitsIcEERSt13basic_ostreamIT_T0_ES6_PKS3_l(%"class.std::basic_ostream"* nonnull align 8 dereferenceable(8), i8*, i64) local_unnamed_addr #0

declare void @_ZSt17__istream_extractRSiPcl(%"class.std::basic_istream"* nonnull align 8 dereferenceable(16), i8*, i64) local_unnamed_addr #0

; Function Attrs: sspstrong uwtable
define internal void @_GLOBAL__sub_I_1360.cpp() #7 section ".text.startup" {
  tail call void @_ZNSt8ios_base4InitC1Ev(%"class.std::ios_base::Init"* nonnull align 1 dereferenceable(1) @_ZStL8__ioinit)
  %1 = tail call i32 @__cxa_atexit(void (i8*)* bitcast (void (%"class.std::ios_base::Init"*)* @_ZNSt8ios_base4InitD1Ev to void (i8*)*), i8* getelementptr inbounds (%"class.std::ios_base::Init", %"class.std::ios_base::Init"* @_ZStL8__ioinit, i64 0, i32 0), i8* nonnull @__dso_handle) #9
  ret void
}


!llvm.module.flags = !{!0, !1, !2, !3}
!llvm.ident = !{!4}

!0 = !{i32 1, !"wchar_size", i32 4}
!1 = !{i32 7, !"PIC Level", i32 2}
!2 = !{i32 7, !"PIE Level", i32 2}
!3 = !{i32 7, !"uwtable", i32 1}
!4 = !{!"clang version 13.0.0"}
!5 = !{!6, !6, i64 0}
!6 = !{!"long", !7, i64 0}
!7 = !{!"omnipotent char", !8, i64 0}
!8 = !{!"Simple C++ TBAA"}
!9 = !{!7, !7, i64 0}
!10 = distinct !{!10, !11}
!11 = !{!"llvm.loop.mustprogress"}
!12 = distinct !{!12, !11}
!13 = distinct !{!13, !11}
!14 = !{!15, !15, i64 0}
!15 = !{!"int", !7, i64 0}
